target datalayout = "e-m:e-p270:32:32-p271:32:32-p272:64:64-i64:64-i128:128-f80:128-n8:16:32:64-S128"
target triple = "x86_64-pc-linux-gnu"

%struct.darktable_t = type { %struct.dt_codepath_t, i32, i32, ptr, ptr, ptr, ptr, ptr, ptr, ptr, ptr, ptr, ptr, ptr, ptr, ptr, ptr, ptr, ptr, ptr, ptr, ptr, ptr, ptr, ptr, ptr, ptr, ptr, ptr, ptr, [64 x %struct.dt_pthread_mutex_t], %struct.dt_pthread_mutex_t, %struct.dt_pthread_mutex_t, %struct.dt_pthread_mutex_t, %struct.dt_pthread_mutex_t, %struct.dt_pthread_mutex_t, ptr, ptr, ptr, ptr, ptr, ptr, ptr, ptr, ptr, ptr, ptr, ptr, ptr, %struct.dt_lua_state_t, ptr, double, ptr, i32, [47 x i32], i32, i32, ptr, ptr, %struct.dt_sys_resources_t, %struct.dt_backthumb_t, %struct.dt_gimp_t }
%struct.dt_codepath_t = type { i8, [3 x i8] }
%struct.dt_pthread_mutex_t = type { %union.pthread_mutex_t }
%union.pthread_mutex_t = type { %struct.__pthread_mutex_s }
%struct.__pthread_mutex_s = type { i32, i32, i32, i32, i32, i16, i16, %struct.__pthread_internal_list }
%struct.__pthread_internal_list = type { ptr, ptr }
%struct.dt_lua_state_t = type { i32 }
%struct.dt_sys_resources_t = type { i64, i64, ptr, ptr, i32 }
%struct.dt_backthumb_t = type { double, double, i32, i32, i32, i32 }
%struct.dt_gimp_t = type { i32, ptr, ptr, i32, i32 }

@darktable = external global %struct.darktable_t, align 8
@.str.42 = private unnamed_addr constant [38 x i8] c"[sql] %s:%d, function %s(): exec \22%s\22\00", align 1
@.str.43 = private unnamed_addr constant [115 x i8] c"generated/home/dtcxzyw/WorkSpace/Projects/compilers/llvm-opt-benchmark/bench/darktable/darktable/src/gui/presets.c\00", align 1
@__FUNCTION__.dt_gui_presets_init = private unnamed_addr constant [20 x i8] c"dt_gui_presets_init\00", align 1
@.str.44 = private unnamed_addr constant [48 x i8] c"DELETE FROM data.presets WHERE writeprotect = 1\00", align 1
@stderr = external global ptr, align 8
@.str.45 = private unnamed_addr constant [53 x i8] c"sqlite3 error: %s:%d, function %s(), query \22%s\22: %s\0A\00", align 1

; Function Attrs: nounwind uwtable
define void @dt_gui_presets_init() #0 {
  %1 = alloca i32, align 4
  br label %2

2:                                                ; preds = %0
  br label %3

3:                                                ; preds = %2
  %4 = load i32, ptr getelementptr inbounds nuw (%struct.darktable_t, ptr @darktable, i32 0, i32 2), align 8, !tbaa !23
  %5 = and i32 256, %4
  %6 = icmp ne i32 %5, 0
  br i1 %6, label %7, label %13

7:                                                ; preds = %3
  %8 = load i32, ptr getelementptr inbounds nuw (%struct.darktable_t, ptr @darktable, i32 0, i32 2), align 8, !tbaa !23
  %9 = xor i32 %8, -1
  %10 = and i32 0, %9
  %11 = icmp ne i32 %10, 0
  br i1 %11, label %13, label %12

12:                                               ; preds = %7
  call void (ptr, ...) @dt_print_ext(ptr noundef @.str.42, ptr noundef @.str.43, i32 noundef 91, ptr noundef @__FUNCTION__.dt_gui_presets_init, ptr noundef @.str.44)
  br label %13

13:                                               ; preds = %12, %7, %3
  br label %14

14:                                               ; preds = %13
  call void @llvm.lifetime.start.p0(i64 4, ptr %1) #11
  %15 = load ptr, ptr getelementptr inbounds nuw (%struct.darktable_t, ptr @darktable, i32 0, i32 18), align 8, !tbaa !59
  %16 = call ptr @dt_database_get(ptr noundef %15)
  %17 = call i32 @sqlite3_exec(ptr noundef %16, ptr noundef @.str.44, ptr noundef null, ptr noundef null, ptr noundef null)
  store i32 %17, ptr %1, align 4, !tbaa !13
  %18 = load i32, ptr %1, align 4, !tbaa !13
  %19 = icmp ne i32 %18, 0
  br i1 %19, label %20, label %26

20:                                               ; preds = %14
  %21 = load ptr, ptr @stderr, align 8, !tbaa !60
  %22 = load ptr, ptr getelementptr inbounds nuw (%struct.darktable_t, ptr @darktable, i32 0, i32 18), align 8, !tbaa !59
  %23 = call ptr @dt_database_get(ptr noundef %22)
  %24 = call ptr @sqlite3_errmsg(ptr noundef %23)
  %25 = call i32 (ptr, ptr, ...) @fprintf(ptr noundef %21, ptr noundef @.str.45, ptr noundef @.str.43, i32 noundef 91, ptr noundef @__FUNCTION__.dt_gui_presets_init, ptr noundef @.str.44, ptr noundef %24) #11
  br label %26

26:                                               ; preds = %20, %14
  call void @llvm.lifetime.end.p0(i64 4, ptr %1) #11
  br label %27

27:                                               ; preds = %26
  ret void
}