; Function Attrs: nounwind uwtable
define void @dt_gui_presets_init() local_unnamed_addr #0 {
  %1 = load i32, ptr getelementptr inbounds nuw (i8, ptr @darktable, i64 8), align 8, !tbaa !14
  %2 = and i32 %1, 256
  %.not = icmp eq i32 %2, 0
  br i1 %.not, label %4, label %3

3:                                                ; preds = %0
  tail call void (ptr, ...) @dt_print_ext(ptr noundef nonnull @.str.42, ptr noundef nonnull @.str.43, i32 noundef 91, ptr noundef nonnull @__FUNCTION__.dt_gui_presets_init, ptr noundef nonnull @.str.44) #16
  br label %4

4:                                                ; preds = %0, %3
  %5 = load ptr, ptr getelementptr inbounds nuw (i8, ptr @darktable, i64 136), align 8, !tbaa !53
  %6 = tail call ptr @dt_database_get(ptr noundef %5) #16
  %7 = tail call i32 @sqlite3_exec(ptr noundef %6, ptr noundef nonnull @.str.44, ptr noundef null, ptr noundef null, ptr noundef null) #16
  %.not1 = icmp eq i32 %7, 0
  br i1 %.not1, label %14, label %8

8:                                                ; preds = %4
  %9 = load ptr, ptr @stderr, align 8, !tbaa !54
  %10 = load ptr, ptr getelementptr inbounds nuw (i8, ptr @darktable, i64 136), align 8, !tbaa !53
  %11 = tail call ptr @dt_database_get(ptr noundef %10) #16
  %12 = tail call ptr @sqlite3_errmsg(ptr noundef %11) #16
  %13 = tail call i32 (ptr, ptr, ...) @fprintf(ptr noundef %9, ptr noundef nonnull @.str.45, ptr noundef nonnull @.str.43, i32 noundef 91, ptr noundef nonnull @__FUNCTION__.dt_gui_presets_init, ptr noundef nonnull @.str.44, ptr noundef %12) #17
  br label %14

14:                                               ; preds = %8, %4
  ret void
}